; Function Attrs: mustprogress nounwind uwtable
define internal fastcc noundef zeroext i1 @_ZN5clang19RecursiveASTVisitorIN12_GLOBAL__N_121PCHContainerGenerator16DebugTypeVisitorEE18VisitOpenACCClauseEPKNS_13OpenACCClauseE(ptr noundef nonnull align 1 dereferenceable(1) %0, ptr noundef nonnull %1) unnamed_addr #0 align 2 {
  %3 = alloca %"class.llvm::iterator_range", align 8
  %4 = alloca %"struct.clang::ConstStmtIterator", align 8
  call void @llvm.lifetime.start.p0(i64 48, ptr nonnull %3)
  call void @_ZN5clang13OpenACCClause8childrenEv(ptr dead_on_unwind nonnull writable sret(%"class.llvm::iterator_range") align 8 %3, ptr noundef nonnull align 8 dereferenceable(20) %1) #18, !noalias !89
  call void @llvm.memcpy.p0.p0.i64(ptr noundef nonnull align 8 dereferenceable(24) %4, ptr noundef nonnull align 8 dereferenceable(24) %3, i64 24, i1 false)
  %5 = getelementptr inbounds nuw i8, ptr %3, i64 24
  %.sroa.27.24.copyload = load ptr, ptr %5, align 8
  %.sroa.4.24..sroa_idx = getelementptr inbounds i8, ptr %3, i64 32
  %.sroa.4.24.copyload = load i64, ptr %.sroa.4.24..sroa_idx, align 8
  call void @llvm.lifetime.end.p0(i64 48, ptr nonnull %3)
  %6 = getelementptr inbounds nuw i8, ptr %4, i64 8
  %7 = load ptr, ptr %4, align 8
  %8 = icmp eq ptr %7, %.sroa.27.24.copyload
  %9 = load i64, ptr %6, align 8
  %10 = icmp eq i64 %9, %.sroa.4.24.copyload
  %.not3.i.not9 = select i1 %8, i1 %10, i1 false
  br i1 %.not3.i.not9, label %._crit_edge, label %.lr.ph

.lr.ph:                                           ; preds = %2, %_ZN5clang16StmtIteratorImplINS_17ConstStmtIteratorEPKNS_4StmtEEppEv.exit
  %11 = phi i64 [ %31, %_ZN5clang16StmtIteratorImplINS_17ConstStmtIteratorEPKNS_4StmtEEppEv.exit ], [ %9, %2 ]
  %12 = phi ptr [ %29, %_ZN5clang16StmtIteratorImplINS_17ConstStmtIteratorEPKNS_4StmtEEppEv.exit ], [ %7, %2 ]
  %13 = and i64 %11, 3
  %14 = icmp eq i64 %13, 0
  br i1 %14, label %_ZNK5clang16StmtIteratorImplINS_17ConstStmtIteratorEPKNS_4StmtEEdeEv.exit, label %15

15:                                               ; preds = %.lr.ph
  %16 = call noundef nonnull align 8 dereferenceable(8) ptr @_ZNK5clang16StmtIteratorBase11GetDeclExprEv(ptr noundef nonnull align 8 dereferenceable(24) %4) #18
  br label %_ZNK5clang16StmtIteratorImplINS_17ConstStmtIteratorEPKNS_4StmtEEdeEv.exit

_ZNK5clang16StmtIteratorImplINS_17ConstStmtIteratorEPKNS_4StmtEEdeEv.exit: ; preds = %.lr.ph, %15
  %.in.i = phi ptr [ %16, %15 ], [ %12, %.lr.ph ]
  %17 = load ptr, ptr %.in.i, align 8
  %18 = call fastcc noundef zeroext i1 @_ZN5clang19RecursiveASTVisitorIN12_GLOBAL__N_121PCHContainerGenerator16DebugTypeVisitorEE12TraverseStmtEPNS_4StmtEPN4llvm15SmallVectorImplINS7_14PointerIntPairIS6_Lj1EbNS7_21PointerLikeTypeTraitsIS6_EENS7_18PointerIntPairInfoIS6_Lj1ESB_EEEEEE(ptr noundef nonnull align 1 dereferenceable(1) %0, ptr noundef %17, ptr noundef null)
  br i1 %18, label %19, label %._crit_edge

19:                                               ; preds = %_ZNK5clang16StmtIteratorImplINS_17ConstStmtIteratorEPKNS_4StmtEEdeEv.exit
  %20 = load i64, ptr %6, align 8
  %21 = and i64 %20, 3
  %22 = icmp eq i64 %21, 0
  br i1 %22, label %23, label %26

23:                                               ; preds = %19
  %24 = load ptr, ptr %4, align 8
  %25 = getelementptr inbounds i8, ptr %24, i64 8
  store ptr %25, ptr %4, align 8
  br label %_ZN5clang16StmtIteratorImplINS_17ConstStmtIteratorEPKNS_4StmtEEppEv.exit

26:                                               ; preds = %19
  %.not.i = icmp ult i64 %20, 4
  br i1 %.not.i, label %28, label %27

27:                                               ; preds = %26
  call void @_ZN5clang16StmtIteratorBase6NextVAEv(ptr noundef nonnull align 8 dereferenceable(24) %4) #18
  br label %_ZN5clang16StmtIteratorImplINS_17ConstStmtIteratorEPKNS_4StmtEEppEv.exit

28:                                               ; preds = %26
  call void @_ZN5clang16StmtIteratorBase8NextDeclEb(ptr noundef nonnull align 8 dereferenceable(24) %4, i1 noundef zeroext true) #18
  br label %_ZN5clang16StmtIteratorImplINS_17ConstStmtIteratorEPKNS_4StmtEEppEv.exit

_ZN5clang16StmtIteratorImplINS_17ConstStmtIteratorEPKNS_4StmtEEppEv.exit: ; preds = %23, %27, %28
  %29 = load ptr, ptr %4, align 8
  %30 = icmp eq ptr %29, %.sroa.27.24.copyload
  %31 = load i64, ptr %6, align 8
  %32 = icmp eq i64 %31, %.sroa.4.24.copyload
  %.not3.i.not = select i1 %30, i1 %32, i1 false
  br i1 %.not3.i.not, label %._crit_edge, label %.lr.ph

._crit_edge:                                      ; preds = %_ZNK5clang16StmtIteratorImplINS_17ConstStmtIteratorEPKNS_4StmtEEdeEv.exit, %_ZN5clang16StmtIteratorImplINS_17ConstStmtIteratorEPKNS_4StmtEEppEv.exit, %2
  %.not3.i.not.lcssa = phi i1 [ true, %2 ], [ %18, %_ZN5clang16StmtIteratorImplINS_17ConstStmtIteratorEPKNS_4StmtEEppEv.exit ], [ %18, %_ZNK5clang16StmtIteratorImplINS_17ConstStmtIteratorEPKNS_4StmtEEdeEv.exit ]
  ret i1 %.not3.i.not.lcssa
}